target datalayout = "e-m:e-p270:32:32-p271:32:32-p272:64:64-i64:64-i128:128-f80:128-n8:16:32:64-S128"
target triple = "x86_64-pc-linux-gnu"

%"struct.std::_Rb_tree_key_compare.34" = type { %"struct.std::less.35" }
%"struct.std::less.35" = type { i8 }
%"struct.std::_Rb_tree_header" = type { %"struct.std::_Rb_tree_node_base", i64 }
%"struct.std::_Rb_tree_node_base" = type { i32, ptr, ptr, ptr }
%"class.std::__cxx11::basic_string" = type { %"struct.std::__cxx11::basic_string<char>::_Alloc_hider", i64, %union.anon }
%"struct.std::__cxx11::basic_string<char>::_Alloc_hider" = type { ptr }
%union.anon = type { i64, [8 x i8] }
%"class.std::shared_ptr" = type { %"class.std::__shared_ptr" }
%"class.std::__shared_ptr" = type { ptr, %"class.std::__shared_count" }
%"class.std::__shared_count" = type { ptr }
%"struct.nix::fetchers::Input" = type { %"class.std::shared_ptr", %"class.std::map.37", %"class.std::optional" }
%"class.std::map.37" = type { %"class.std::_Rb_tree.38" }
%"class.std::_Rb_tree.38" = type { %"struct.std::_Rb_tree<std::__cxx11::basic_string<char>, std::pair<const std::__cxx11::basic_string<char>, std::variant<std::__cxx11::basic_string<char>, unsigned long, nix::Explicit<bool>>>, std::_Select1st<std::pair<const std::__cxx11::basic_string<char>, std::variant<std::__cxx11::basic_string<char>, unsigned long, nix::Explicit<bool>>>>, std::less<std::__cxx11::basic_string<char>>>::_Rb_tree_impl" }
%"struct.std::_Rb_tree<std::__cxx11::basic_string<char>, std::pair<const std::__cxx11::basic_string<char>, std::variant<std::__cxx11::basic_string<char>, unsigned long, nix::Explicit<bool>>>, std::_Select1st<std::pair<const std::__cxx11::basic_string<char>, std::variant<std::__cxx11::basic_string<char>, unsigned long, nix::Explicit<bool>>>>, std::less<std::__cxx11::basic_string<char>>>::_Rb_tree_impl" = type { %"struct.std::_Rb_tree_key_compare.34", %"struct.std::_Rb_tree_header" }
%"class.std::optional" = type { %"struct.std::_Optional_base" }
%"struct.std::_Optional_base" = type { %"struct.std::_Optional_payload" }
%"struct.std::_Optional_payload" = type { %"struct.std::_Optional_payload.base", [7 x i8] }
%"struct.std::_Optional_payload.base" = type { %"struct.std::_Optional_payload_base.base" }
%"struct.std::_Optional_payload_base.base" = type <{ %"union.std::_Optional_payload_base<std::__cxx11::basic_string<char>>::_Storage", i8 }>
%"union.std::_Optional_payload_base<std::__cxx11::basic_string<char>>::_Storage" = type { %"class.std::__cxx11::basic_string" }
%"struct.std::_Rb_tree_const_iterator.431" = type { ptr }

; Function Attrs: mustprogress uwtable
define linkonce_odr noundef zeroext i1 @_ZSt12__equal_aux1ISt23_Rb_tree_const_iteratorISt4pairIKNSt7__cxx1112basic_stringIcSt11char_traitsIcESaIcEEESt7variantIJS7_mN3nix8ExplicitIbEEEEEESF_EbT_SG_T0_(ptr %0, ptr %1, ptr %2) #5 comdat {
  %4 = alloca %"struct.std::_Rb_tree_const_iterator.431", align 8
  %5 = alloca %"struct.std::_Rb_tree_const_iterator.431", align 8
  %6 = alloca %"struct.std::_Rb_tree_const_iterator.431", align 8
  %7 = alloca i8, align 1
  %8 = alloca %"struct.std::_Rb_tree_const_iterator.431", align 8
  %9 = alloca %"struct.std::_Rb_tree_const_iterator.431", align 8
  %10 = alloca %"struct.std::_Rb_tree_const_iterator.431", align 8
  %11 = getelementptr inbounds %"struct.std::_Rb_tree_const_iterator.431", ptr %4, i32 0, i32 0
  store ptr %0, ptr %11, align 8
  %12 = getelementptr inbounds %"struct.std::_Rb_tree_const_iterator.431", ptr %5, i32 0, i32 0
  store ptr %1, ptr %12, align 8
  %13 = getelementptr inbounds %"struct.std::_Rb_tree_const_iterator.431", ptr %6, i32 0, i32 0
  store ptr %2, ptr %13, align 8
  store i8 0, ptr %7, align 1
  call void @llvm.memcpy.p0.p0.i64(ptr align 8 %8, ptr align 8 %4, i64 8, i1 false)
  call void @llvm.memcpy.p0.p0.i64(ptr align 8 %9, ptr align 8 %5, i64 8, i1 false)
  call void @llvm.memcpy.p0.p0.i64(ptr align 8 %10, ptr align 8 %6, i64 8, i1 false)
  %14 = getelementptr inbounds %"struct.std::_Rb_tree_const_iterator.431", ptr %8, i32 0, i32 0
  %15 = load ptr, ptr %14, align 8
  %16 = getelementptr inbounds %"struct.std::_Rb_tree_const_iterator.431", ptr %9, i32 0, i32 0
  %17 = load ptr, ptr %16, align 8
  %18 = getelementptr inbounds %"struct.std::_Rb_tree_const_iterator.431", ptr %10, i32 0, i32 0
  %19 = load ptr, ptr %18, align 8
  %20 = call noundef zeroext i1 @_ZNSt7__equalILb0EE5equalISt23_Rb_tree_const_iteratorISt4pairIKNSt7__cxx1112basic_stringIcSt11char_traitsIcESaIcEEESt7variantIJS9_mN3nix8ExplicitIbEEEEEESH_EEbT_SI_T0_(ptr %15, ptr %17, ptr %19)
  ret i1 %20
}

; Function Attrs: mustprogress nounwind uwtable
define linkonce_odr ptr @_ZSt12__niter_baseISt23_Rb_tree_const_iteratorISt4pairIKNSt7__cxx1112basic_stringIcSt11char_traitsIcESaIcEEESt7variantIJS7_mN3nix8ExplicitIbEEEEEEET_SG_(ptr %0) #2 comdat {
  %2 = alloca %"struct.std::_Rb_tree_const_iterator.431", align 8
  %3 = alloca %"struct.std::_Rb_tree_const_iterator.431", align 8
  %4 = getelementptr inbounds %"struct.std::_Rb_tree_const_iterator.431", ptr %3, i32 0, i32 0
  store ptr %0, ptr %4, align 8
  call void @llvm.memcpy.p0.p0.i64(ptr align 8 %2, ptr align 8 %3, i64 8, i1 false)
  %5 = getelementptr inbounds %"struct.std::_Rb_tree_const_iterator.431", ptr %2, i32 0, i32 0
  %6 = load ptr, ptr %5, align 8
  ret ptr %6
}

; Function Attrs: mustprogress uwtable
define linkonce_odr noundef zeroext i1 @_ZSt11__equal_auxISt23_Rb_tree_const_iteratorISt4pairIKNSt7__cxx1112basic_stringIcSt11char_traitsIcESaIcEEESt7variantIJS7_mN3nix8ExplicitIbEEEEEESF_EbT_SG_T0_(ptr %0, ptr %1, ptr %2) #5 comdat {
  %4 = alloca %"struct.std::_Rb_tree_const_iterator.431", align 8
  %5 = alloca %"struct.std::_Rb_tree_const_iterator.431", align 8
  %6 = alloca %"struct.std::_Rb_tree_const_iterator.431", align 8
  %7 = alloca %"struct.std::_Rb_tree_const_iterator.431", align 8
  %8 = alloca %"struct.std::_Rb_tree_const_iterator.431", align 8
  %9 = alloca %"struct.std::_Rb_tree_const_iterator.431", align 8
  %10 = alloca %"struct.std::_Rb_tree_const_iterator.431", align 8
  %11 = alloca %"struct.std::_Rb_tree_const_iterator.431", align 8
  %12 = alloca %"struct.std::_Rb_tree_const_iterator.431", align 8
  %13 = getelementptr inbounds %"struct.std::_Rb_tree_const_iterator.431", ptr %4, i32 0, i32 0
  store ptr %0, ptr %13, align 8
  %14 = getelementptr inbounds %"struct.std::_Rb_tree_const_iterator.431", ptr %5, i32 0, i32 0
  store ptr %1, ptr %14, align 8
  %15 = getelementptr inbounds %"struct.std::_Rb_tree_const_iterator.431", ptr %6, i32 0, i32 0
  store ptr %2, ptr %15, align 8
  call void @llvm.memcpy.p0.p0.i64(ptr align 8 %8, ptr align 8 %4, i64 8, i1 false)
  %16 = getelementptr inbounds %"struct.std::_Rb_tree_const_iterator.431", ptr %8, i32 0, i32 0
  %17 = load ptr, ptr %16, align 8
  %18 = call ptr @_ZSt12__niter_baseISt23_Rb_tree_const_iteratorISt4pairIKNSt7__cxx1112basic_stringIcSt11char_traitsIcESaIcEEESt7variantIJS7_mN3nix8ExplicitIbEEEEEEET_SG_(ptr %17) #1
  %19 = getelementptr inbounds %"struct.std::_Rb_tree_const_iterator.431", ptr %7, i32 0, i32 0
  store ptr %18, ptr %19, align 8
  call void @llvm.memcpy.p0.p0.i64(ptr align 8 %10, ptr align 8 %5, i64 8, i1 false)
  %20 = getelementptr inbounds %"struct.std::_Rb_tree_const_iterator.431", ptr %10, i32 0, i32 0
  %21 = load ptr, ptr %20, align 8
  %22 = call ptr @_ZSt12__niter_baseISt23_Rb_tree_const_iteratorISt4pairIKNSt7__cxx1112basic_stringIcSt11char_traitsIcESaIcEEESt7variantIJS7_mN3nix8ExplicitIbEEEEEEET_SG_(ptr %21) #1
  %23 = getelementptr inbounds %"struct.std::_Rb_tree_const_iterator.431", ptr %9, i32 0, i32 0
  store ptr %22, ptr %23, align 8
  call void @llvm.memcpy.p0.p0.i64(ptr align 8 %12, ptr align 8 %6, i64 8, i1 false)
  %24 = getelementptr inbounds %"struct.std::_Rb_tree_const_iterator.431", ptr %12, i32 0, i32 0
  %25 = load ptr, ptr %24, align 8
  %26 = call ptr @_ZSt12__niter_baseISt23_Rb_tree_const_iteratorISt4pairIKNSt7__cxx1112basic_stringIcSt11char_traitsIcESaIcEEESt7variantIJS7_mN3nix8ExplicitIbEEEEEEET_SG_(ptr %25) #1
  %27 = getelementptr inbounds %"struct.std::_Rb_tree_const_iterator.431", ptr %11, i32 0, i32 0
  store ptr %26, ptr %27, align 8
  %28 = getelementptr inbounds %"struct.std::_Rb_tree_const_iterator.431", ptr %7, i32 0, i32 0
  %29 = load ptr, ptr %28, align 8
  %30 = getelementptr inbounds %"struct.std::_Rb_tree_const_iterator.431", ptr %9, i32 0, i32 0
  %31 = load ptr, ptr %30, align 8
  %32 = getelementptr inbounds %"struct.std::_Rb_tree_const_iterator.431", ptr %11, i32 0, i32 0
  %33 = load ptr, ptr %32, align 8
  %34 = call noundef zeroext i1 @_ZSt12__equal_aux1ISt23_Rb_tree_const_iteratorISt4pairIKNSt7__cxx1112basic_stringIcSt11char_traitsIcESaIcEEESt7variantIJS7_mN3nix8ExplicitIbEEEEEESF_EbT_SG_T0_(ptr %29, ptr %31, ptr %33)
  ret i1 %34
}

; Function Attrs: mustprogress nounwind uwtable
define linkonce_odr void @_ZNSt23_Rb_tree_const_iteratorISt4pairIKNSt7__cxx1112basic_stringIcSt11char_traitsIcESaIcEEESt7variantIJS6_mN3nix8ExplicitIbEEEEEEC2EPKSt18_Rb_tree_node_base(ptr noundef nonnull align 8 dereferenceable(8) %0, ptr noundef %1) unnamed_addr #2 comdat align 2 {
  %3 = alloca ptr, align 8
  %4 = alloca ptr, align 8
  store ptr %0, ptr %3, align 8
  store ptr %1, ptr %4, align 8
  %5 = load ptr, ptr %3, align 8
  %6 = getelementptr inbounds %"struct.std::_Rb_tree_const_iterator.431", ptr %5, i32 0, i32 0
  %7 = load ptr, ptr %4, align 8
  store ptr %7, ptr %6, align 8
  ret void
}

; Function Attrs: mustprogress uwtable
define linkonce_odr noundef zeroext i1 @_ZSt5equalISt23_Rb_tree_const_iteratorISt4pairIKNSt7__cxx1112basic_stringIcSt11char_traitsIcESaIcEEESt7variantIJS7_mN3nix8ExplicitIbEEEEEESF_EbT_SG_T0_(ptr %0, ptr %1, ptr %2) #5 comdat {
  %4 = alloca %"struct.std::_Rb_tree_const_iterator.431", align 8
  %5 = alloca %"struct.std::_Rb_tree_const_iterator.431", align 8
  %6 = alloca %"struct.std::_Rb_tree_const_iterator.431", align 8
  %7 = alloca %"struct.std::_Rb_tree_const_iterator.431", align 8
  %8 = alloca %"struct.std::_Rb_tree_const_iterator.431", align 8
  %9 = alloca %"struct.std::_Rb_tree_const_iterator.431", align 8
  %10 = getelementptr inbounds %"struct.std::_Rb_tree_const_iterator.431", ptr %4, i32 0, i32 0
  store ptr %0, ptr %10, align 8
  %11 = getelementptr inbounds %"struct.std::_Rb_tree_const_iterator.431", ptr %5, i32 0, i32 0
  store ptr %1, ptr %11, align 8
  %12 = getelementptr inbounds %"struct.std::_Rb_tree_const_iterator.431", ptr %6, i32 0, i32 0
  store ptr %2, ptr %12, align 8
  call void @llvm.memcpy.p0.p0.i64(ptr align 8 %7, ptr align 8 %4, i64 8, i1 false)
  call void @llvm.memcpy.p0.p0.i64(ptr align 8 %8, ptr align 8 %5, i64 8, i1 false)
  call void @llvm.memcpy.p0.p0.i64(ptr align 8 %9, ptr align 8 %6, i64 8, i1 false)
  %13 = getelementptr inbounds %"struct.std::_Rb_tree_const_iterator.431", ptr %7, i32 0, i32 0
  %14 = load ptr, ptr %13, align 8
  %15 = getelementptr inbounds %"struct.std::_Rb_tree_const_iterator.431", ptr %8, i32 0, i32 0
  %16 = load ptr, ptr %15, align 8
  %17 = getelementptr inbounds %"struct.std::_Rb_tree_const_iterator.431", ptr %9, i32 0, i32 0
  %18 = load ptr, ptr %17, align 8
  %19 = call noundef zeroext i1 @_ZSt11__equal_auxISt23_Rb_tree_const_iteratorISt4pairIKNSt7__cxx1112basic_stringIcSt11char_traitsIcESaIcEEESt7variantIJS7_mN3nix8ExplicitIbEEEEEESF_EbT_SG_T0_(ptr %14, ptr %16, ptr %18)
  ret i1 %19
}

; Function Attrs: mustprogress nounwind uwtable
define linkonce_odr ptr @_ZNKSt8_Rb_treeINSt7__cxx1112basic_stringIcSt11char_traitsIcESaIcEEESt4pairIKS5_St7variantIJS5_mN3nix8ExplicitIbEEEEESt10_Select1stISD_ESt4lessIS5_ESaISD_EE3endEv(ptr noundef nonnull align 8 dereferenceable(48) %0) #2 comdat align 2 {
  %2 = alloca %"struct.std::_Rb_tree_const_iterator.431", align 8
  %3 = alloca ptr, align 8
  store ptr %0, ptr %3, align 8
  %4 = load ptr, ptr %3, align 8
  %5 = getelementptr inbounds %"class.std::_Rb_tree.38", ptr %4, i32 0, i32 0
  %6 = getelementptr inbounds i8, ptr %5, i64 8
  %7 = getelementptr inbounds %"struct.std::_Rb_tree_header", ptr %6, i32 0, i32 0
  call void @_ZNSt23_Rb_tree_const_iteratorISt4pairIKNSt7__cxx1112basic_stringIcSt11char_traitsIcESaIcEEESt7variantIJS6_mN3nix8ExplicitIbEEEEEEC2EPKSt18_Rb_tree_node_base(ptr noundef nonnull align 8 dereferenceable(8) %2, ptr noundef %7) #1
  %8 = getelementptr inbounds %"struct.std::_Rb_tree_const_iterator.431", ptr %2, i32 0, i32 0
  %9 = load ptr, ptr %8, align 8
  ret ptr %9
}

; Function Attrs: mustprogress nounwind uwtable
define linkonce_odr ptr @_ZNKSt8_Rb_treeINSt7__cxx1112basic_stringIcSt11char_traitsIcESaIcEEESt4pairIKS5_St7variantIJS5_mN3nix8ExplicitIbEEEEESt10_Select1stISD_ESt4lessIS5_ESaISD_EE5beginEv(ptr noundef nonnull align 8 dereferenceable(48) %0) #2 comdat align 2 {
  %2 = alloca %"struct.std::_Rb_tree_const_iterator.431", align 8
  %3 = alloca ptr, align 8
  store ptr %0, ptr %3, align 8
  %4 = load ptr, ptr %3, align 8
  %5 = getelementptr inbounds %"class.std::_Rb_tree.38", ptr %4, i32 0, i32 0
  %6 = getelementptr inbounds i8, ptr %5, i64 8
  %7 = getelementptr inbounds %"struct.std::_Rb_tree_header", ptr %6, i32 0, i32 0
  %8 = getelementptr inbounds %"struct.std::_Rb_tree_node_base", ptr %7, i32 0, i32 2
  %9 = load ptr, ptr %8, align 8
  call void @_ZNSt23_Rb_tree_const_iteratorISt4pairIKNSt7__cxx1112basic_stringIcSt11char_traitsIcESaIcEEESt7variantIJS6_mN3nix8ExplicitIbEEEEEEC2EPKSt18_Rb_tree_node_base(ptr noundef nonnull align 8 dereferenceable(8) %2, ptr noundef %9) #1
  %10 = getelementptr inbounds %"struct.std::_Rb_tree_const_iterator.431", ptr %2, i32 0, i32 0
  %11 = load ptr, ptr %10, align 8
  ret ptr %11
}

; Function Attrs: mustprogress nounwind uwtable
define linkonce_odr noundef i64 @_ZNKSt8_Rb_treeINSt7__cxx1112basic_stringIcSt11char_traitsIcESaIcEEESt4pairIKS5_St7variantIJS5_mN3nix8ExplicitIbEEEEESt10_Select1stISD_ESt4lessIS5_ESaISD_EE4sizeEv(ptr noundef nonnull align 8 dereferenceable(48) %0) #2 comdat align 2 {
  %2 = alloca ptr, align 8
  store ptr %0, ptr %2, align 8
  %3 = load ptr, ptr %2, align 8
  %4 = getelementptr inbounds %"class.std::_Rb_tree.38", ptr %3, i32 0, i32 0
  %5 = getelementptr inbounds i8, ptr %4, i64 8
  %6 = getelementptr inbounds %"struct.std::_Rb_tree_header", ptr %5, i32 0, i32 1
  %7 = load i64, ptr %6, align 8
  ret i64 %7
}

; Function Attrs: mustprogress uwtable
define linkonce_odr noundef zeroext i1 @_ZSteqRKSt8_Rb_treeINSt7__cxx1112basic_stringIcSt11char_traitsIcESaIcEEESt4pairIKS5_St7variantIJS5_mN3nix8ExplicitIbEEEEESt10_Select1stISD_ESt4lessIS5_ESaISD_EESL_(ptr noundef nonnull align 8 dereferenceable(48) %0, ptr noundef nonnull align 8 dereferenceable(48) %1) #5 comdat {
  %3 = alloca ptr, align 8
  %4 = alloca ptr, align 8
  %5 = alloca %"struct.std::_Rb_tree_const_iterator.431", align 8
  %6 = alloca %"struct.std::_Rb_tree_const_iterator.431", align 8
  %7 = alloca %"struct.std::_Rb_tree_const_iterator.431", align 8
  store ptr %0, ptr %3, align 8
  store ptr %1, ptr %4, align 8
  %8 = load ptr, ptr %3, align 8
  %9 = call noundef i64 @_ZNKSt8_Rb_treeINSt7__cxx1112basic_stringIcSt11char_traitsIcESaIcEEESt4pairIKS5_St7variantIJS5_mN3nix8ExplicitIbEEEEESt10_Select1stISD_ESt4lessIS5_ESaISD_EE4sizeEv(ptr noundef nonnull align 8 dereferenceable(48) %8) #1
  %10 = load ptr, ptr %4, align 8
  %11 = call noundef i64 @_ZNKSt8_Rb_treeINSt7__cxx1112basic_stringIcSt11char_traitsIcESaIcEEESt4pairIKS5_St7variantIJS5_mN3nix8ExplicitIbEEEEESt10_Select1stISD_ESt4lessIS5_ESaISD_EE4sizeEv(ptr noundef nonnull align 8 dereferenceable(48) %10) #1
  %12 = icmp eq i64 %9, %11
  br i1 %12, label %13, label %30

13:                                               ; preds = %2
  %14 = load ptr, ptr %3, align 8
  %15 = call ptr @_ZNKSt8_Rb_treeINSt7__cxx1112basic_stringIcSt11char_traitsIcESaIcEEESt4pairIKS5_St7variantIJS5_mN3nix8ExplicitIbEEEEESt10_Select1stISD_ESt4lessIS5_ESaISD_EE5beginEv(ptr noundef nonnull align 8 dereferenceable(48) %14) #1
  %16 = getelementptr inbounds %"struct.std::_Rb_tree_const_iterator.431", ptr %5, i32 0, i32 0
  store ptr %15, ptr %16, align 8
  %17 = load ptr, ptr %3, align 8
  %18 = call ptr @_ZNKSt8_Rb_treeINSt7__cxx1112basic_stringIcSt11char_traitsIcESaIcEEESt4pairIKS5_St7variantIJS5_mN3nix8ExplicitIbEEEEESt10_Select1stISD_ESt4lessIS5_ESaISD_EE3endEv(ptr noundef nonnull align 8 dereferenceable(48) %17) #1
  %19 = getelementptr inbounds %"struct.std::_Rb_tree_const_iterator.431", ptr %6, i32 0, i32 0
  store ptr %18, ptr %19, align 8
  %20 = load ptr, ptr %4, align 8
  %21 = call ptr @_ZNKSt8_Rb_treeINSt7__cxx1112basic_stringIcSt11char_traitsIcESaIcEEESt4pairIKS5_St7variantIJS5_mN3nix8ExplicitIbEEEEESt10_Select1stISD_ESt4lessIS5_ESaISD_EE5beginEv(ptr noundef nonnull align 8 dereferenceable(48) %20) #1
  %22 = getelementptr inbounds %"struct.std::_Rb_tree_const_iterator.431", ptr %7, i32 0, i32 0
  store ptr %21, ptr %22, align 8
  %23 = getelementptr inbounds %"struct.std::_Rb_tree_const_iterator.431", ptr %5, i32 0, i32 0
  %24 = load ptr, ptr %23, align 8
  %25 = getelementptr inbounds %"struct.std::_Rb_tree_const_iterator.431", ptr %6, i32 0, i32 0
  %26 = load ptr, ptr %25, align 8
  %27 = getelementptr inbounds %"struct.std::_Rb_tree_const_iterator.431", ptr %7, i32 0, i32 0
  %28 = load ptr, ptr %27, align 8
  %29 = call noundef zeroext i1 @_ZSt5equalISt23_Rb_tree_const_iteratorISt4pairIKNSt7__cxx1112basic_stringIcSt11char_traitsIcESaIcEEESt7variantIJS7_mN3nix8ExplicitIbEEEEEESF_EbT_SG_T0_(ptr %24, ptr %26, ptr %28)
  br label %30

30:                                               ; preds = %13, %2
  %31 = phi i1 [ false, %2 ], [ %29, %13 ]
  ret i1 %31
}

; Function Attrs: mustprogress uwtable
define linkonce_odr noundef zeroext i1 @_ZSteqINSt7__cxx1112basic_stringIcSt11char_traitsIcESaIcEEESt7variantIJS5_mN3nix8ExplicitIbEEEESt4lessIS5_ESaISt4pairIKS5_SA_EEEbRKSt3mapIT_T0_T1_T2_ESO_(ptr noundef nonnull align 8 dereferenceable(48) %0, ptr noundef nonnull align 8 dereferenceable(48) %1) #5 comdat {
  %3 = alloca ptr, align 8
  %4 = alloca ptr, align 8
  store ptr %0, ptr %3, align 8
  store ptr %1, ptr %4, align 8
  %5 = load ptr, ptr %3, align 8
  %6 = getelementptr inbounds %"class.std::map.37", ptr %5, i32 0, i32 0
  %7 = load ptr, ptr %4, align 8
  %8 = getelementptr inbounds %"class.std::map.37", ptr %7, i32 0, i32 0
  %9 = call noundef zeroext i1 @_ZSteqRKSt8_Rb_treeINSt7__cxx1112basic_stringIcSt11char_traitsIcESaIcEEESt4pairIKS5_St7variantIJS5_mN3nix8ExplicitIbEEEEESt10_Select1stISD_ESt4lessIS5_ESaISD_EESL_(ptr noundef nonnull align 8 dereferenceable(48) %6, ptr noundef nonnull align 8 dereferenceable(48) %8)
  ret i1 %9
}

; Function Attrs: mustprogress uwtable
define noundef zeroext i1 @_ZNK3nix8fetchers5InputeqERKS1_(ptr noundef nonnull align 8 dereferenceable(104) %0, ptr noundef nonnull align 8 dereferenceable(104) %1) #5 align 2 {
  %3 = alloca ptr, align 8
  %4 = alloca ptr, align 8
  store ptr %0, ptr %3, align 8
  store ptr %1, ptr %4, align 8
  %5 = load ptr, ptr %3, align 8
  %6 = getelementptr inbounds %"struct.nix::fetchers::Input", ptr %5, i32 0, i32 1
  %7 = load ptr, ptr %4, align 8
  %8 = getelementptr inbounds %"struct.nix::fetchers::Input", ptr %7, i32 0, i32 1
  %9 = call noundef zeroext i1 @_ZSteqINSt7__cxx1112basic_stringIcSt11char_traitsIcESaIcEEESt7variantIJS5_mN3nix8ExplicitIbEEEESt4lessIS5_ESaISt4pairIKS5_SA_EEEbRKSt3mapIT_T0_T1_T2_ESO_(ptr noundef nonnull align 8 dereferenceable(48) %6, ptr noundef nonnull align 8 dereferenceable(48) %8)
  ret i1 %9
}