; Function Attrs: mustprogress uwtable
define noundef zeroext i1 @_ZNK3nix8fetchers5InputeqERKS1_(ptr noundef nonnull align 8 dereferenceable(104) %0, ptr nocapture noundef nonnull readonly align 8 dereferenceable(104) %1) local_unnamed_addr #5 align 2 {
  %3 = getelementptr inbounds i8, ptr %0, i64 56
  %4 = load i64, ptr %3, align 8
  %5 = getelementptr inbounds i8, ptr %1, i64 56
  %6 = load i64, ptr %5, align 8
  %7 = icmp eq i64 %4, %6
  br i1 %7, label %8, label %_ZSteqINSt7__cxx1112basic_stringIcSt11char_traitsIcESaIcEEESt7variantIJS5_mN3nix8ExplicitIbEEEESt4lessIS5_ESaISt4pairIKS5_SA_EEEbRKSt3mapIT_T0_T1_T2_ESO_.exit

8:                                                ; preds = %2
  %9 = getelementptr inbounds i8, ptr %0, i64 40
  %10 = load ptr, ptr %9, align 8
  %11 = getelementptr inbounds i8, ptr %0, i64 24
  %12 = getelementptr inbounds i8, ptr %1, i64 40
  %13 = load ptr, ptr %12, align 8
  %14 = tail call noundef zeroext i1 @_ZNSt7__equalILb0EE5equalISt23_Rb_tree_const_iteratorISt4pairIKNSt7__cxx1112basic_stringIcSt11char_traitsIcESaIcEEESt7variantIJS9_mN3nix8ExplicitIbEEEEEESH_EEbT_SI_T0_(ptr %10, ptr nonnull %11, ptr %13)
  br label %_ZSteqINSt7__cxx1112basic_stringIcSt11char_traitsIcESaIcEEESt7variantIJS5_mN3nix8ExplicitIbEEEESt4lessIS5_ESaISt4pairIKS5_SA_EEEbRKSt3mapIT_T0_T1_T2_ESO_.exit

_ZSteqINSt7__cxx1112basic_stringIcSt11char_traitsIcESaIcEEESt7variantIJS5_mN3nix8ExplicitIbEEEESt4lessIS5_ESaISt4pairIKS5_SA_EEEbRKSt3mapIT_T0_T1_T2_ESO_.exit: ; preds = %2, %8
  %15 = phi i1 [ false, %2 ], [ %14, %8 ]
  ret i1 %15
}